target datalayout = "e-m:e-p270:32:32-p271:32:32-p272:64:64-i64:64-i128:128-f80:128-n8:16:32:64-S128"
target triple = "x86_64-pc-linux-gnu"

%"struct.Luau::CodeGen::IrOp" = type { i32 }

; Function Attrs: mustprogress uwtable
define dso_local void @_ZN4Luau7CodeGen19translateInstConcatERNS0_9IrBuilderEPKji(ptr noundef nonnull align 8 dereferenceable(752) %0, ptr noundef %1, i32 noundef %2) #0 {
  %4 = alloca ptr, align 8
  %5 = alloca ptr, align 8
  %6 = alloca i32, align 4
  %7 = alloca i32, align 4
  %8 = alloca i32, align 4
  %9 = alloca i32, align 4
  %10 = alloca %"struct.Luau::CodeGen::IrOp", align 4
  %11 = alloca %"struct.Luau::CodeGen::IrOp", align 4
  %12 = alloca %"struct.Luau::CodeGen::IrOp", align 4
  %13 = alloca %"struct.Luau::CodeGen::IrOp", align 4
  %14 = alloca %"struct.Luau::CodeGen::IrOp", align 4
  %15 = alloca %"struct.Luau::CodeGen::IrOp", align 4
  %16 = alloca %"struct.Luau::CodeGen::IrOp", align 4
  %17 = alloca %"struct.Luau::CodeGen::IrOp", align 4
  %18 = alloca %"struct.Luau::CodeGen::IrOp", align 4
  %19 = alloca %"struct.Luau::CodeGen::IrOp", align 4
  %20 = alloca %"struct.Luau::CodeGen::IrOp", align 4
  store ptr %0, ptr %4, align 8, !tbaa !4
  store ptr %1, ptr %5, align 8, !tbaa !9
  store i32 %2, ptr %6, align 4, !tbaa !11
  call void @llvm.lifetime.start.p0(i64 4, ptr %7) #13
  %21 = load ptr, ptr %5, align 8, !tbaa !9
  %22 = load i32, ptr %21, align 4, !tbaa !11
  %23 = lshr i32 %22, 8
  %24 = and i32 %23, 255
  store i32 %24, ptr %7, align 4, !tbaa !11
  call void @llvm.lifetime.start.p0(i64 4, ptr %8) #13
  %25 = load ptr, ptr %5, align 8, !tbaa !9
  %26 = load i32, ptr %25, align 4, !tbaa !11
  %27 = lshr i32 %26, 16
  %28 = and i32 %27, 255
  store i32 %28, ptr %8, align 4, !tbaa !11
  call void @llvm.lifetime.start.p0(i64 4, ptr %9) #13
  %29 = load ptr, ptr %5, align 8, !tbaa !9
  %30 = load i32, ptr %29, align 4, !tbaa !11
  %31 = lshr i32 %30, 24
  %32 = and i32 %31, 255
  store i32 %32, ptr %9, align 4, !tbaa !11
  %33 = load ptr, ptr %4, align 8, !tbaa !4
  %34 = load ptr, ptr %4, align 8, !tbaa !4
  %35 = load i32, ptr %6, align 4, !tbaa !11
  %36 = add nsw i32 %35, 1
  %37 = call i32 @_ZN4Luau7CodeGen9IrBuilder9constUintEj(ptr noundef nonnull align 8 dereferenceable(752) %34, i32 noundef %36)
  %38 = getelementptr inbounds nuw %"struct.Luau::CodeGen::IrOp", ptr %10, i32 0, i32 0
  store i32 %37, ptr %38, align 4
  %39 = getelementptr inbounds nuw %"struct.Luau::CodeGen::IrOp", ptr %10, i32 0, i32 0
  %40 = load i32, ptr %39, align 4
  %41 = call i32 @_ZN4Luau7CodeGen9IrBuilder4instENS0_5IrCmdENS0_4IrOpE(ptr noundef nonnull align 8 dereferenceable(752) %33, i8 noundef zeroext 98, i32 %40)
  %42 = getelementptr inbounds nuw %"struct.Luau::CodeGen::IrOp", ptr %11, i32 0, i32 0
  store i32 %41, ptr %42, align 4
  %43 = load ptr, ptr %4, align 8, !tbaa !4
  %44 = load ptr, ptr %4, align 8, !tbaa !4
  %45 = load i32, ptr %8, align 4, !tbaa !11
  %46 = trunc i32 %45 to i8
  %47 = call i32 @_ZN4Luau7CodeGen9IrBuilder5vmRegEh(ptr noundef nonnull align 8 dereferenceable(752) %44, i8 noundef zeroext %46)
  %48 = getelementptr inbounds nuw %"struct.Luau::CodeGen::IrOp", ptr %12, i32 0, i32 0
  store i32 %47, ptr %48, align 4
  %49 = load ptr, ptr %4, align 8, !tbaa !4
  %50 = load i32, ptr %9, align 4, !tbaa !11
  %51 = load i32, ptr %8, align 4, !tbaa !11
  %52 = sub nsw i32 %50, %51
  %53 = add nsw i32 %52, 1
  %54 = call i32 @_ZN4Luau7CodeGen9IrBuilder9constUintEj(ptr noundef nonnull align 8 dereferenceable(752) %49, i32 noundef %53)
  %55 = getelementptr inbounds nuw %"struct.Luau::CodeGen::IrOp", ptr %13, i32 0, i32 0
  store i32 %54, ptr %55, align 4
  %56 = getelementptr inbounds nuw %"struct.Luau::CodeGen::IrOp", ptr %12, i32 0, i32 0
  %57 = load i32, ptr %56, align 4
  %58 = getelementptr inbounds nuw %"struct.Luau::CodeGen::IrOp", ptr %13, i32 0, i32 0
  %59 = load i32, ptr %58, align 4
  %60 = call i32 @_ZN4Luau7CodeGen9IrBuilder4instENS0_5IrCmdENS0_4IrOpES3_(ptr noundef nonnull align 8 dereferenceable(752) %43, i8 noundef zeroext 79, i32 %57, i32 %59)
  %61 = getelementptr inbounds nuw %"struct.Luau::CodeGen::IrOp", ptr %14, i32 0, i32 0
  store i32 %60, ptr %61, align 4
  call void @llvm.lifetime.start.p0(i64 4, ptr %15) #13
  %62 = load ptr, ptr %4, align 8, !tbaa !4
  %63 = load ptr, ptr %4, align 8, !tbaa !4
  %64 = load i32, ptr %8, align 4, !tbaa !11
  %65 = trunc i32 %64 to i8
  %66 = call i32 @_ZN4Luau7CodeGen9IrBuilder5vmRegEh(ptr noundef nonnull align 8 dereferenceable(752) %63, i8 noundef zeroext %65)
  %67 = getelementptr inbounds nuw %"struct.Luau::CodeGen::IrOp", ptr %16, i32 0, i32 0
  store i32 %66, ptr %67, align 4
  %68 = getelementptr inbounds nuw %"struct.Luau::CodeGen::IrOp", ptr %16, i32 0, i32 0
  %69 = load i32, ptr %68, align 4
  %70 = call i32 @_ZN4Luau7CodeGen9IrBuilder4instENS0_5IrCmdENS0_4IrOpE(ptr noundef nonnull align 8 dereferenceable(752) %62, i8 noundef zeroext 6, i32 %69)
  %71 = getelementptr inbounds nuw %"struct.Luau::CodeGen::IrOp", ptr %15, i32 0, i32 0
  store i32 %70, ptr %71, align 4
  %72 = load ptr, ptr %4, align 8, !tbaa !4
  %73 = load ptr, ptr %4, align 8, !tbaa !4
  %74 = load i32, ptr %7, align 4, !tbaa !11
  %75 = trunc i32 %74 to i8
  %76 = call i32 @_ZN4Luau7CodeGen9IrBuilder5vmRegEh(ptr noundef nonnull align 8 dereferenceable(752) %73, i8 noundef zeroext %75)
  %77 = getelementptr inbounds nuw %"struct.Luau::CodeGen::IrOp", ptr %17, i32 0, i32 0
  store i32 %76, ptr %77, align 4
  call void @llvm.memcpy.p0.p0.i64(ptr align 4 %18, ptr align 4 %15, i64 4, i1 false), !tbaa.struct !112
  %78 = getelementptr inbounds nuw %"struct.Luau::CodeGen::IrOp", ptr %17, i32 0, i32 0
  %79 = load i32, ptr %78, align 4
  %80 = getelementptr inbounds nuw %"struct.Luau::CodeGen::IrOp", ptr %18, i32 0, i32 0
  %81 = load i32, ptr %80, align 4
  %82 = call i32 @_ZN4Luau7CodeGen9IrBuilder4instENS0_5IrCmdENS0_4IrOpES3_(ptr noundef nonnull align 8 dereferenceable(752) %72, i8 noundef zeroext 18, i32 %79, i32 %81)
  %83 = getelementptr inbounds nuw %"struct.Luau::CodeGen::IrOp", ptr %19, i32 0, i32 0
  store i32 %82, ptr %83, align 4
  %84 = load ptr, ptr %4, align 8, !tbaa !4
  %85 = call i32 @_ZN4Luau7CodeGen9IrBuilder4instENS0_5IrCmdE(ptr noundef nonnull align 8 dereferenceable(752) %84, i8 noundef zeroext 94)
  %86 = getelementptr inbounds nuw %"struct.Luau::CodeGen::IrOp", ptr %20, i32 0, i32 0
  store i32 %85, ptr %86, align 4
  call void @llvm.lifetime.end.p0(i64 4, ptr %15) #13
  call void @llvm.lifetime.end.p0(i64 4, ptr %9) #13
  call void @llvm.lifetime.end.p0(i64 4, ptr %8) #13
  call void @llvm.lifetime.end.p0(i64 4, ptr %7) #13
  ret void
}