; Function Attrs: mustprogress uwtable
define dso_local void @_ZN4Luau7CodeGen19translateInstConcatERNS0_9IrBuilderEPKji(ptr noundef nonnull align 8 dereferenceable(752) %0, ptr noundef readonly captures(none) %1, i32 noundef %2) local_unnamed_addr #0 {
  %4 = load i32, ptr %1, align 4, !tbaa !4
  %5 = lshr i32 %4, 8
  %6 = lshr i32 %4, 16
  %7 = and i32 %6, 255
  %8 = lshr i32 %4, 24
  %9 = add nsw i32 %2, 1
  %10 = tail call i32 @_ZN4Luau7CodeGen9IrBuilder9constUintEj(ptr noundef nonnull align 8 dereferenceable(752) %0, i32 noundef %9)
  %11 = tail call i32 @_ZN4Luau7CodeGen9IrBuilder4instENS0_5IrCmdENS0_4IrOpE(ptr noundef nonnull align 8 dereferenceable(752) %0, i8 noundef zeroext 98, i32 %10)
  %12 = trunc i32 %6 to i8
  %13 = tail call i32 @_ZN4Luau7CodeGen9IrBuilder5vmRegEh(ptr noundef nonnull align 8 dereferenceable(752) %0, i8 noundef zeroext %12)
  %14 = add nuw nsw i32 %8, 1
  %15 = sub nsw i32 %14, %7
  %16 = tail call i32 @_ZN4Luau7CodeGen9IrBuilder9constUintEj(ptr noundef nonnull align 8 dereferenceable(752) %0, i32 noundef %15)
  %17 = tail call i32 @_ZN4Luau7CodeGen9IrBuilder4instENS0_5IrCmdENS0_4IrOpES3_(ptr noundef nonnull align 8 dereferenceable(752) %0, i8 noundef zeroext 79, i32 %13, i32 %16)
  %18 = tail call i32 @_ZN4Luau7CodeGen9IrBuilder5vmRegEh(ptr noundef nonnull align 8 dereferenceable(752) %0, i8 noundef zeroext %12)
  %19 = tail call i32 @_ZN4Luau7CodeGen9IrBuilder4instENS0_5IrCmdENS0_4IrOpE(ptr noundef nonnull align 8 dereferenceable(752) %0, i8 noundef zeroext 6, i32 %18)
  %20 = trunc i32 %5 to i8
  %21 = tail call i32 @_ZN4Luau7CodeGen9IrBuilder5vmRegEh(ptr noundef nonnull align 8 dereferenceable(752) %0, i8 noundef zeroext %20)
  %22 = tail call i32 @_ZN4Luau7CodeGen9IrBuilder4instENS0_5IrCmdENS0_4IrOpES3_(ptr noundef nonnull align 8 dereferenceable(752) %0, i8 noundef zeroext 18, i32 %21, i32 %19)
  %23 = tail call i32 @_ZN4Luau7CodeGen9IrBuilder4instENS0_5IrCmdE(ptr noundef nonnull align 8 dereferenceable(752) %0, i8 noundef zeroext 94)
  ret void
}